target datalayout = "e-m:e-p270:32:32-p271:32:32-p272:64:64-i64:64-i128:128-f80:128-n8:16:32:64-S128"
target triple = "x86_64-pc-linux-gnu"

%struct.__sigset_t = type { [16 x i64] }
%struct.sigaction = type { %union.anon.8, %struct.__sigset_t, i32, ptr }
%union.anon.8 = type { ptr }

@_ZN7Iex_3_412_GLOBAL__N_110fpeHandlerE = internal global ptr null, align 8

; Function Attrs: mustprogress nounwind uwtable
define hidden void @_ZN7Iex_3_421setFpExceptionHandlerEPFviPKcE(ptr noundef %0) #8 {
  %2 = alloca ptr, align 8
  %3 = alloca %struct.sigaction, align 8
  store ptr %0, ptr %2, align 8, !tbaa !9
  %4 = load volatile ptr, ptr @_ZN7Iex_3_412_GLOBAL__N_110fpeHandlerE, align 8, !tbaa !9
  %5 = icmp eq ptr %4, null
  br i1 %5, label %6, label %13

6:                                                ; preds = %1
  call void @llvm.lifetime.start.p0(i64 152, ptr %3) #3
  %7 = getelementptr inbounds nuw %struct.sigaction, ptr %3, i32 0, i32 1
  %8 = call i32 @sigemptyset(ptr noundef %7) #3
  %9 = getelementptr inbounds nuw %struct.sigaction, ptr %3, i32 0, i32 2
  store i32 1073741828, ptr %9, align 8, !tbaa !33
  %10 = getelementptr inbounds nuw %struct.sigaction, ptr %3, i32 0, i32 0
  store ptr @catchSigFpe, ptr %10, align 8, !tbaa !35
  %11 = getelementptr inbounds nuw %struct.sigaction, ptr %3, i32 0, i32 3
  store ptr null, ptr %11, align 8, !tbaa !36
  %12 = call i32 @sigaction(i32 noundef 8, ptr noundef %3, ptr noundef null) #3
  call void @llvm.lifetime.end.p0(i64 152, ptr %3) #3
  br label %13

13:                                               ; preds = %6, %1
  %14 = load ptr, ptr %2, align 8, !tbaa !9
  store volatile ptr %14, ptr @_ZN7Iex_3_412_GLOBAL__N_110fpeHandlerE, align 8, !tbaa !9
  ret void
}