; Function Attrs: mustprogress nounwind uwtable
define hidden void @_ZN7Iex_3_421setFpExceptionHandlerEPFviPKcE(ptr noundef %0) local_unnamed_addr #5 {
  %2 = alloca %struct.sigaction, align 8
  %3 = load volatile ptr, ptr @_ZN7Iex_3_412_GLOBAL__N_110fpeHandlerE, align 8, !tbaa !25
  %4 = icmp eq ptr %3, null
  br i1 %4, label %5, label %11

5:                                                ; preds = %1
  call void @llvm.lifetime.start.p0(i64 152, ptr nonnull %2) #7
  %6 = getelementptr inbounds nuw i8, ptr %2, i64 8
  %7 = call i32 @sigemptyset(ptr noundef nonnull %6) #7
  %8 = getelementptr inbounds nuw i8, ptr %2, i64 136
  store i32 1073741828, ptr %8, align 8, !tbaa !30
  store ptr @catchSigFpe, ptr %2, align 8, !tbaa !32
  %9 = getelementptr inbounds nuw i8, ptr %2, i64 144
  store ptr null, ptr %9, align 8, !tbaa !33
  %10 = call i32 @sigaction(i32 noundef 8, ptr noundef nonnull %2, ptr noundef null) #7
  call void @llvm.lifetime.end.p0(i64 152, ptr nonnull %2) #7
  br label %11

11:                                               ; preds = %5, %1
  store volatile ptr %0, ptr @_ZN7Iex_3_412_GLOBAL__N_110fpeHandlerE, align 8, !tbaa !25
  ret void
}